; Function Attrs: mustprogress uwtable
define dso_local noundef ptr @_ZN13cmSourceGroup18MatchChildrenRegexERKNSt7__cxx1112basic_stringIcSt11char_traitsIcESaIcEEE(ptr noundef nonnull align 8 dereferenceable(704) %0, ptr noundef nonnull readonly align 8 captures(none) dereferenceable(32) %1) local_unnamed_addr #0 align 2 {
  %3 = getelementptr inbounds nuw i8, ptr %0, i64 696
  %4 = load ptr, ptr %3, align 8, !tbaa !30
  %5 = load ptr, ptr %4, align 8, !tbaa !72
  %6 = getelementptr inbounds nuw i8, ptr %4, i64 8
  %7 = load ptr, ptr %6, align 8, !tbaa !72
  %.not2223 = icmp eq ptr %5, %7
  br i1 %.not2223, label %._crit_edge, label %.lr.ph

8:                                                ; preds = %.lr.ph
  %9 = getelementptr inbounds nuw i8, ptr %.sroa.015.024, i64 704
  %.not22 = icmp eq ptr %9, %7
  br i1 %.not22, label %._crit_edge, label %.lr.ph

.lr.ph:                                           ; preds = %2, %8
  %.sroa.015.024 = phi ptr [ %9, %8 ], [ %5, %2 ]
  %10 = tail call noundef ptr @_ZN13cmSourceGroup18MatchChildrenRegexERKNSt7__cxx1112basic_stringIcSt11char_traitsIcESaIcEEE(ptr noundef nonnull align 8 dereferenceable(704) %.sroa.015.024, ptr noundef nonnull align 8 dereferenceable(32) %1)
  %.not = icmp eq ptr %10, null
  br i1 %.not, label %8, label %.loopexit

._crit_edge:                                      ; preds = %8, %2
  %11 = getelementptr inbounds nuw i8, ptr %0, i64 64
  %12 = load ptr, ptr %1, align 8, !tbaa !10
  %13 = tail call noundef zeroext i1 @_ZNK5cmsys17RegularExpression4findEPKcRNS_22RegularExpressionMatchEmj(ptr noundef nonnull align 8 dereferenceable(560) %11, ptr noundef %12, ptr noundef nonnull align 8 dereferenceable(560) %11, i64 noundef 0, i32 noundef 0)
  %. = select i1 %13, ptr %0, ptr null
  br label %.loopexit

.loopexit:                                        ; preds = %.lr.ph, %._crit_edge
  %.3 = phi ptr [ %., %._crit_edge ], [ %10, %.lr.ph ]
  ret ptr %.3
}